; Function Attrs: nounwind uwtable
define ptr @l_Lean_mkNoConfusionEnum_mkNoConfusionType___lambda__3(ptr noundef %0, ptr noundef %1, ptr noundef %2, ptr noundef %3, ptr noundef %4, ptr noundef %5, ptr noundef %6, ptr noundef %7, ptr noundef %8, ptr noundef %9, ptr noundef %10, ptr noundef %11, ptr noundef %12) #0 {
  %14 = ptrtoint ptr %6 to i64
  %15 = and i64 %14, 1
  %.not = icmp eq i64 %15, 0
  br i1 %.not, label %16, label %lean_inc.exit

16:                                               ; preds = %13
  %.val.i = load i32, ptr %6, align 4, !tbaa !4
  %17 = icmp sgt i32 %.val.i, 0
  br i1 %17, label %18, label %20, !prof !9

18:                                               ; preds = %16
  %19 = add nuw i32 %.val.i, 1
  store i32 %19, ptr %6, align 4, !tbaa !4
  br label %lean_inc.exit

20:                                               ; preds = %16
  %.not.i = icmp eq i32 %.val.i, 0
  br i1 %.not.i, label %lean_inc.exit, label %21

21:                                               ; preds = %20
  tail call void @lean_inc_ref_cold(ptr noundef nonnull %6) #4
  br label %lean_inc.exit

lean_inc.exit:                                    ; preds = %21, %20, %18, %13
  tail call void @lean_inc_heartbeat() #4
  %22 = tail call noalias ptr @mi_malloc_small(i64 noundef 88) #4
  %23 = icmp eq ptr %22, null
  br i1 %23, label %24, label %lean_alloc_closure.exit

24:                                               ; preds = %lean_inc.exit
  tail call void @lean_internal_panic_out_of_memory() #5
  unreachable

lean_alloc_closure.exit:                          ; preds = %lean_inc.exit
  %25 = getelementptr inbounds nuw i8, ptr %22, i64 4
  store i32 1, ptr %22, align 4, !tbaa !4
  store i32 -184549288, ptr %25, align 4
  %26 = getelementptr inbounds nuw i8, ptr %22, i64 8
  store ptr @l_Lean_mkNoConfusionEnum_mkNoConfusionType___lambda__2, ptr %26, align 8, !tbaa !10
  %27 = getelementptr inbounds nuw i8, ptr %22, i64 16
  store i16 14, ptr %27, align 8, !tbaa !14
  %28 = getelementptr inbounds nuw i8, ptr %22, i64 18
  store i16 8, ptr %28, align 2, !tbaa !14
  %29 = getelementptr inbounds nuw i8, ptr %22, i64 24
  store ptr %0, ptr %29, align 8, !tbaa !10
  %30 = getelementptr inbounds nuw i8, ptr %22, i64 32
  store ptr %7, ptr %30, align 8, !tbaa !10
  %31 = getelementptr inbounds nuw i8, ptr %22, i64 40
  store ptr %1, ptr %31, align 8, !tbaa !10
  %32 = getelementptr inbounds nuw i8, ptr %22, i64 48
  store ptr %2, ptr %32, align 8, !tbaa !10
  %33 = getelementptr inbounds nuw i8, ptr %22, i64 56
  store ptr %3, ptr %33, align 8, !tbaa !10
  %34 = getelementptr inbounds nuw i8, ptr %22, i64 64
  store ptr %4, ptr %34, align 8, !tbaa !10
  %35 = getelementptr inbounds nuw i8, ptr %22, i64 72
  store ptr %5, ptr %35, align 8, !tbaa !10
  %36 = getelementptr inbounds nuw i8, ptr %22, i64 80
  store ptr %6, ptr %36, align 8, !tbaa !10
  %37 = load ptr, ptr @l_Lean_mkNoConfusionEnum_mkToCtorIdx___closed__11, align 8, !tbaa !10
  %38 = tail call ptr @l_Lean_Meta_withLocalDecl___at_Lean_Meta_addPPExplicitToExposeDiff_visit___spec__4___rarg(ptr noundef %37, i8 noundef zeroext 0, ptr noundef %6, ptr noundef nonnull %22, i8 noundef zeroext 0, ptr noundef %8, ptr noundef %9, ptr noundef %10, ptr noundef %11, ptr noundef %12) #4
  ret ptr %38
}